target datalayout = "e-m:e-p270:32:32-p271:32:32-p272:64:64-i64:64-i128:128-f80:128-n8:16:32:64-S128"
target triple = "x86_64-pc-linux-gnu"

%class.macro_util = type { ptr, %class.bv_util, %class.arith_util, %class.arith_rewriter, %class.bv_rewriter, ptr, ptr }
%class.bv_util = type { %class.bv_recognizers, ptr, ptr }
%class.bv_recognizers = type { i32 }
%class.arith_util = type { ptr, ptr }
%class.arith_rewriter = type { %class.poly_rewriter.base, i8, i8, i8, i8, i8, i8, i8, i8, i32 }
%class.poly_rewriter.base = type <{ %class.arith_rewriter_core.base, [5 x i8], ptr, %class.obj_map, i8, i8, [2 x i8], i32, i8, i8, i8, i8 }>
%class.arith_rewriter_core.base = type <{ ptr, %class.arith_util, %class.scoped_ptr, i8, i8, i8 }>
%class.scoped_ptr = type { ptr }
%class.obj_map = type { %class.core_hashtable }
%class.core_hashtable = type <{ ptr, i32, i32, i32, [4 x i8] }>
%class.bv_rewriter = type <{ %class.poly_rewriter.base.1, [4 x i8], %class.mk_extract_proc, %class.arith_util, i8, i8, i8, i8, i8, i8, i8, i8, i8, i8, i8, i8, i8, [3 x i8] }>
%class.poly_rewriter.base.1 = type <{ %class.bv_rewriter_core, ptr, %class.obj_map, i8, i8, [2 x i8], i32, i8, i8, i8, i8 }>
%class.bv_rewriter_core = type { ptr, %class.bv_util, %class.obj_ref }
%class.obj_ref = type { ptr, ptr }
%class.mk_extract_proc = type { ptr, i32, i32, ptr, ptr }
%class.app = type { %class.expr, ptr, i32, %struct.app_flags, [0 x ptr] }
%class.expr = type { %class.ast }
%class.ast = type { i32, i32, i32, i32 }
%struct.app_flags = type <{ i16, i8, i8 }>
%class.quantifier = type { %class.expr, i32, i32, ptr, ptr, i32, i32, i8, i8, %class.symbol, %class.symbol, i32, i32, [0 x i8] }
%class.symbol = type { ptr }

; Function Attrs: mustprogress nounwind uwtable
define linkonce_odr hidden noundef i32 @_ZNK3ast8get_kindEv(ptr noundef nonnull align 4 dereferenceable(16) %0) #7 comdat align 2 {
  %2 = alloca ptr, align 8
  store ptr %0, ptr %2, align 8, !tbaa !82
  %3 = load ptr, ptr %2, align 8
  %4 = getelementptr inbounds nuw %class.ast, ptr %3, i32 0, i32 1
  %5 = load i32, ptr %4, align 4
  %6 = and i32 %5, 65535
  ret i32 %6
}

; Function Attrs: inlinehint mustprogress nounwind uwtable
define linkonce_odr hidden noundef zeroext i1 @_Z13is_quantifierPK3ast(ptr noundef %0) #8 comdat {
  %2 = alloca ptr, align 8
  store ptr %0, ptr %2, align 8, !tbaa !82
  %3 = load ptr, ptr %2, align 8, !tbaa !82
  %4 = call noundef i32 @_ZNK3ast8get_kindEv(ptr noundef nonnull align 4 dereferenceable(16) %3)
  %5 = icmp eq i32 %4, 2
  ret i1 %5
}

; Function Attrs: mustprogress nounwind uwtable
define linkonce_odr hidden noundef zeroext i1 @_ZNK3app15has_quantifiersEv(ptr noundef nonnull align 8 dereferenceable(32) %0) #7 comdat align 2 {
  %2 = alloca ptr, align 8
  store ptr %0, ptr %2, align 8, !tbaa !84
  %3 = load ptr, ptr %2, align 8
  %4 = getelementptr inbounds nuw %class.app, ptr %3, i32 0, i32 3
  %5 = getelementptr inbounds nuw %struct.app_flags, ptr %4, i32 0, i32 1
  %6 = load i8, ptr %5, align 2
  %7 = lshr i8 %6, 1
  %8 = and i8 %7, 1
  %9 = zext i8 %8 to i32
  %10 = icmp ne i32 %9, 0
  ret i1 %10
}

; Function Attrs: inlinehint mustprogress nounwind uwtable
define linkonce_odr hidden noundef ptr @_Z6to_appPK3ast(ptr noundef %0) #8 comdat {
  %2 = alloca ptr, align 8
  store ptr %0, ptr %2, align 8, !tbaa !82
  %3 = load ptr, ptr %2, align 8, !tbaa !82
  ret ptr %3
}

; Function Attrs: inlinehint mustprogress nounwind uwtable
define linkonce_odr hidden noundef zeroext i1 @_Z6is_appPK3ast(ptr noundef %0) #8 comdat {
  %2 = alloca ptr, align 8
  store ptr %0, ptr %2, align 8, !tbaa !82
  %3 = load ptr, ptr %2, align 8, !tbaa !82
  %4 = call noundef i32 @_ZNK3ast8get_kindEv(ptr noundef nonnull align 4 dereferenceable(16) %3)
  %5 = icmp eq i32 %4, 0
  ret i1 %5
}

; Function Attrs: mustprogress nounwind uwtable
define linkonce_odr hidden noundef i32 @_ZNK10quantifier13get_num_declsEv(ptr noundef nonnull align 8 dereferenceable(80) %0) #7 comdat align 2 {
  %2 = alloca ptr, align 8
  store ptr %0, ptr %2, align 8, !tbaa !136
  %3 = load ptr, ptr %2, align 8
  %4 = getelementptr inbounds nuw %class.quantifier, ptr %3, i32 0, i32 2
  %5 = load i32, ptr %4, align 4, !tbaa !143
  ret i32 %5
}

; Function Attrs: inlinehint mustprogress uwtable
define linkonce_odr hidden noundef zeroext i1 @_Z15has_quantifiersPK4expr(ptr noundef %0) #9 comdat {
  %2 = alloca ptr, align 8
  store ptr %0, ptr %2, align 8, !tbaa !50
  %3 = load ptr, ptr %2, align 8, !tbaa !50
  %4 = call noundef zeroext i1 @_Z6is_appPK3ast(ptr noundef %3)
  br i1 %4, label %5, label %9

5:                                                ; preds = %1
  %6 = load ptr, ptr %2, align 8, !tbaa !50
  %7 = call noundef ptr @_Z6to_appPK3ast(ptr noundef %6)
  %8 = call noundef zeroext i1 @_ZNK3app15has_quantifiersEv(ptr noundef nonnull align 8 dereferenceable(32) %7)
  br label %12

9:                                                ; preds = %1
  %10 = load ptr, ptr %2, align 8, !tbaa !50
  %11 = call noundef zeroext i1 @_Z13is_quantifierPK3ast(ptr noundef %10)
  br label %12

12:                                               ; preds = %9, %5
  %13 = phi i1 [ %8, %5 ], [ %11, %9 ]
  ret i1 %13
}

; Function Attrs: mustprogress nounwind uwtable
define linkonce_odr hidden noundef ptr @_ZNK10quantifier8get_exprEv(ptr noundef nonnull align 8 dereferenceable(80) %0) #7 comdat align 2 {
  %2 = alloca ptr, align 8
  store ptr %0, ptr %2, align 8, !tbaa !136
  %3 = load ptr, ptr %2, align 8
  %4 = getelementptr inbounds nuw %class.quantifier, ptr %3, i32 0, i32 3
  %5 = load ptr, ptr %4, align 8, !tbaa !138
  ret ptr %5
}

; Function Attrs: mustprogress uwtable
define hidden void @_ZN10macro_util24collect_macro_candidatesEP10quantifierRNS_16macro_candidatesE(ptr noundef nonnull align 8 dereferenceable(320) %0, ptr noundef %1, ptr noundef nonnull align 8 dereferenceable(64) %2) #4 align 2 {
  %4 = alloca ptr, align 8
  %5 = alloca ptr, align 8
  %6 = alloca ptr, align 8
  %7 = alloca ptr, align 8
  %8 = alloca i32, align 4
  %9 = alloca i32, align 4
  %10 = alloca i32, align 4
  %11 = alloca i32, align 4
  store ptr %0, ptr %4, align 8, !tbaa !3
  store ptr %1, ptr %5, align 8, !tbaa !136
  store ptr %2, ptr %6, align 8, !tbaa !228
  %12 = load ptr, ptr %4, align 8
  %13 = load ptr, ptr %6, align 8, !tbaa !228
  call void @_ZN10macro_util16macro_candidates5resetEv(ptr noundef nonnull align 8 dereferenceable(64) %13)
  call void @llvm.lifetime.start.p0(i64 8, ptr %7) #3
  %14 = load ptr, ptr %5, align 8, !tbaa !136
  %15 = call noundef ptr @_ZNK10quantifier8get_exprEv(ptr noundef nonnull align 8 dereferenceable(80) %14)
  store ptr %15, ptr %7, align 8, !tbaa !50
  %16 = load ptr, ptr %7, align 8, !tbaa !50
  %17 = call noundef zeroext i1 @_Z15has_quantifiersPK4expr(ptr noundef %16)
  br i1 %17, label %18, label %19

18:                                               ; preds = %3
  store i32 1, ptr %8, align 4
  br label %56

19:                                               ; preds = %3
  call void @llvm.lifetime.start.p0(i64 4, ptr %9) #3
  %20 = load ptr, ptr %5, align 8, !tbaa !136
  %21 = call noundef i32 @_ZNK10quantifier13get_num_declsEv(ptr noundef nonnull align 8 dereferenceable(80) %20)
  store i32 %21, ptr %9, align 4, !tbaa !67
  %22 = getelementptr inbounds nuw %class.macro_util, ptr %12, i32 0, i32 0
  %23 = load ptr, ptr %22, align 8, !tbaa !109
  %24 = load ptr, ptr %7, align 8, !tbaa !50
  %25 = call noundef zeroext i1 @_Z9is_clauseR11ast_managerP4expr(ptr noundef nonnull align 8 dereferenceable(976) %23, ptr noundef %24)
  br i1 %25, label %26, label %51

26:                                               ; preds = %19
  %27 = load ptr, ptr %7, align 8, !tbaa !50
  %28 = getelementptr inbounds nuw %class.macro_util, ptr %12, i32 0, i32 6
  store ptr %27, ptr %28, align 8, !tbaa !37
  call void @llvm.lifetime.start.p0(i64 4, ptr %10) #3
  %29 = getelementptr inbounds nuw %class.macro_util, ptr %12, i32 0, i32 0
  %30 = load ptr, ptr %29, align 8, !tbaa !109
  %31 = load ptr, ptr %7, align 8, !tbaa !50
  %32 = call noundef i32 @_Z23get_clause_num_literalsR11ast_managerP4expr(ptr noundef nonnull align 8 dereferenceable(976) %30, ptr noundef %31)
  store i32 %32, ptr %10, align 4, !tbaa !67
  call void @llvm.lifetime.start.p0(i64 4, ptr %11) #3
  store i32 0, ptr %11, align 4, !tbaa !67
  br label %33

33:                                               ; preds = %46, %26
  %34 = load i32, ptr %11, align 4, !tbaa !67
  %35 = load i32, ptr %10, align 4, !tbaa !67
  %36 = icmp ult i32 %34, %35
  br i1 %36, label %38, label %37

37:                                               ; preds = %33
  store i32 2, ptr %8, align 4
  call void @llvm.lifetime.end.p0(i64 4, ptr %11) #3
  br label %49

38:                                               ; preds = %33
  %39 = getelementptr inbounds nuw %class.macro_util, ptr %12, i32 0, i32 0
  %40 = load ptr, ptr %39, align 8, !tbaa !109
  %41 = load ptr, ptr %7, align 8, !tbaa !50
  %42 = load i32, ptr %11, align 4, !tbaa !67
  %43 = call noundef ptr @_Z18get_clause_literalR11ast_managerP4exprj(ptr noundef nonnull align 8 dereferenceable(976) %40, ptr noundef %41, i32 noundef %42)
  %44 = load i32, ptr %9, align 4, !tbaa !67
  %45 = load ptr, ptr %6, align 8, !tbaa !228
  call void @_ZN10macro_util29collect_macro_candidates_coreEP4exprjRNS_16macro_candidatesE(ptr noundef nonnull align 8 dereferenceable(320) %12, ptr noundef %43, i32 noundef %44, ptr noundef nonnull align 8 dereferenceable(64) %45)
  br label %46

46:                                               ; preds = %38
  %47 = load i32, ptr %11, align 4, !tbaa !67
  %48 = add i32 %47, 1
  store i32 %48, ptr %11, align 4, !tbaa !67
  br label %33, !llvm.loop !319

49:                                               ; preds = %37
  %50 = getelementptr inbounds nuw %class.macro_util, ptr %12, i32 0, i32 6
  store ptr null, ptr %50, align 8, !tbaa !37
  call void @llvm.lifetime.end.p0(i64 4, ptr %10) #3
  br label %55

51:                                               ; preds = %19
  %52 = load ptr, ptr %7, align 8, !tbaa !50
  %53 = load i32, ptr %9, align 4, !tbaa !67
  %54 = load ptr, ptr %6, align 8, !tbaa !228
  call void @_ZN10macro_util29collect_macro_candidates_coreEP4exprjRNS_16macro_candidatesE(ptr noundef nonnull align 8 dereferenceable(320) %12, ptr noundef %52, i32 noundef %53, ptr noundef nonnull align 8 dereferenceable(64) %54)
  br label %55

55:                                               ; preds = %51, %49
  call void @llvm.lifetime.end.p0(i64 4, ptr %9) #3
  store i32 0, ptr %8, align 4
  br label %56

56:                                               ; preds = %55, %18
  call void @llvm.lifetime.end.p0(i64 8, ptr %7) #3
  %57 = load i32, ptr %8, align 4
  switch i32 %57, label %59 [
    i32 0, label %58
    i32 1, label %58
  ]

58:                                               ; preds = %56, %56
  ret void

59:                                               ; preds = %56
  unreachable
}