; Function Attrs: mustprogress uwtable
define hidden void @_ZN10macro_util24collect_macro_candidatesEP10quantifierRNS_16macro_candidatesE(ptr noundef nonnull align 8 dereferenceable(320) %0, ptr noundef readonly captures(none) %1, ptr noundef nonnull align 8 dereferenceable(64) %2) local_unnamed_addr #3 align 2 {
  tail call void @_ZN10macro_util16macro_candidates5resetEv(ptr noundef nonnull align 8 dereferenceable(64) %2)
  %4 = getelementptr inbounds nuw i8, ptr %1, i64 24
  %5 = load ptr, ptr %4, align 8, !tbaa !128
  %6 = getelementptr inbounds nuw i8, ptr %5, i64 4
  %7 = load i32, ptr %6, align 4
  %trunc = trunc i32 %7 to i16
  switch i16 %trunc, label %12 [
    i16 0, label %8
    i16 2, label %25
  ]

8:                                                ; preds = %3
  %9 = getelementptr inbounds nuw i8, ptr %5, i64 30
  %10 = load i8, ptr %9, align 2
  %11 = and i8 %10, 2
  %.not = icmp eq i8 %11, 0
  br i1 %.not, label %12, label %25

12:                                               ; preds = %3, %8
  %13 = getelementptr inbounds nuw i8, ptr %1, i64 20
  %14 = load i32, ptr %13, align 4, !tbaa !129
  %15 = load ptr, ptr %0, align 8, !tbaa !108
  %16 = tail call noundef zeroext i1 @_Z9is_clauseR11ast_managerP4expr(ptr noundef nonnull align 8 dereferenceable(976) %15, ptr noundef nonnull %5)
  br i1 %16, label %17, label %24

17:                                               ; preds = %12
  %18 = getelementptr inbounds nuw i8, ptr %0, i64 312
  store ptr %5, ptr %18, align 8, !tbaa !280
  %19 = load ptr, ptr %0, align 8, !tbaa !108
  %20 = tail call noundef i32 @_Z23get_clause_num_literalsR11ast_managerP4expr(ptr noundef nonnull align 8 dereferenceable(976) %19, ptr noundef nonnull %5)
  %.not18 = icmp eq i32 %20, 0
  br i1 %.not18, label %._crit_edge, label %.lr.ph

._crit_edge:                                      ; preds = %.lr.ph, %17
  store ptr null, ptr %18, align 8, !tbaa !280
  br label %25

.lr.ph:                                           ; preds = %17, %.lr.ph
  %.017 = phi i32 [ %23, %.lr.ph ], [ 0, %17 ]
  %21 = load ptr, ptr %0, align 8, !tbaa !108
  %22 = tail call noundef ptr @_Z18get_clause_literalR11ast_managerP4exprj(ptr noundef nonnull align 8 dereferenceable(976) %21, ptr noundef nonnull %5, i32 noundef %.017)
  tail call void @_ZN10macro_util29collect_macro_candidates_coreEP4exprjRNS_16macro_candidatesE(ptr noundef nonnull align 8 dereferenceable(320) %0, ptr noundef %22, i32 noundef %14, ptr noundef nonnull align 8 dereferenceable(64) %2)
  %23 = add nuw i32 %.017, 1
  %exitcond.not = icmp eq i32 %23, %20
  br i1 %exitcond.not, label %._crit_edge, label %.lr.ph, !llvm.loop !295

24:                                               ; preds = %12
  tail call void @_ZN10macro_util29collect_macro_candidates_coreEP4exprjRNS_16macro_candidatesE(ptr noundef nonnull align 8 dereferenceable(320) %0, ptr noundef nonnull %5, i32 noundef %14, ptr noundef nonnull align 8 dereferenceable(64) %2)
  br label %25

25:                                               ; preds = %3, %8, %._crit_edge, %24
  ret void
}